; Function Attrs: mustprogress uwtable
define { ptr, i64 } @_ZNK32pxrInternal_v0_24__pxrReserved__12PcpPrimIndex21GetNodeIteratorAtNodeERKNS_10PcpNodeRefE(ptr nocapture noundef nonnull readonly align 8 dereferenceable(40) %0, ptr noundef nonnull align 8 dereferenceable(16) %1) local_unnamed_addr #3 align 2 {
  %3 = load ptr, ptr %0, align 8
  %4 = icmp eq ptr %3, null
  br i1 %4, label %6, label %_ZNK32pxrInternal_v0_24__pxrReserved__8TfRefPtrINS_18PcpPrimIndex_GraphEEptEv.exit

_ZNK32pxrInternal_v0_24__pxrReserved__8TfRefPtrINS_18PcpPrimIndex_GraphEEptEv.exit: ; preds = %2
  %5 = tail call noundef i64 @_ZNK32pxrInternal_v0_24__pxrReserved__18PcpPrimIndex_Graph19GetNodeIndexForNodeERKNS_10PcpNodeRefE(ptr noundef nonnull align 8 dereferenceable(57) %3, ptr noundef nonnull align 8 dereferenceable(16) %1)
  br label %6

6:                                                ; preds = %2, %_ZNK32pxrInternal_v0_24__pxrReserved__8TfRefPtrINS_18PcpPrimIndex_GraphEEptEv.exit
  %.sroa.4.0 = phi i64 [ %5, %_ZNK32pxrInternal_v0_24__pxrReserved__8TfRefPtrINS_18PcpPrimIndex_GraphEEptEv.exit ], [ -1, %2 ]
  %.fca.0.insert = insertvalue { ptr, i64 } poison, ptr %3, 0
  %.fca.1.insert = insertvalue { ptr, i64 } %.fca.0.insert, i64 %.sroa.4.0, 1
  ret { ptr, i64 } %.fca.1.insert
}